; Function Attrs: mustprogress nofree norecurse nosync nounwind willreturn memory(read, inaccessiblemem: none) uwtable
define internal noundef i64 @_ZZN8facebook6hermes7tracing12_GLOBAL__N_110bufConvertESt10unique_ptrIN4llvh12MemoryBufferESt14default_deleteIS5_EEENK17OwnedMemoryBuffer4sizeEv(ptr nocapture noundef nonnull readonly align 8 dereferenceable(16) %this) unnamed_addr #14 align 2 {
entry:
  %data_ = getelementptr inbounds i8, ptr %this, i64 8
  %0 = load ptr, ptr %data_, align 8
  %BufferEnd.i = getelementptr inbounds i8, ptr %0, i64 16
  %1 = load ptr, ptr %BufferEnd.i, align 8
  %BufferStart.i = getelementptr inbounds i8, ptr %0, i64 8
  %2 = load ptr, ptr %BufferStart.i, align 8
  %sub.ptr.lhs.cast.i = ptrtoint ptr %1 to i64
  %sub.ptr.rhs.cast.i = ptrtoint ptr %2 to i64
  %sub.ptr.sub.i = sub i64 %sub.ptr.lhs.cast.i, %sub.ptr.rhs.cast.i
  ret i64 %sub.ptr.sub.i
}